target datalayout = "e-m:e-p270:32:32-p271:32:32-p272:64:64-i64:64-i128:128-f80:128-n8:16:32:64-S128"
target triple = "x86_64-pc-linux-gnu"

%struct.Vec_Int_t_ = type { i32, i32, ptr }
%struct.timespec = type { i64, i64 }

@.str.10 = private unnamed_addr constant [24 x i8] c"Detected %d top XORs.  \00", align 1
@.str.11 = private unnamed_addr constant [5 x i8] c"Time\00", align 1
@.str.19 = private unnamed_addr constant [5 x i8] c"%s =\00", align 1
@.str.20 = private unnamed_addr constant [11 x i8] c"%9.2f sec\0A\00", align 1

; Function Attrs: inlinehint nounwind uwtable
define internal void @Abc_PrintTime(i32 noundef %0, ptr noundef %1, i64 noundef %2) #2 {
  %4 = alloca i32, align 4
  %5 = alloca ptr, align 8
  %6 = alloca i64, align 8
  store i32 %0, ptr %4, align 4, !tbaa !8
  store ptr %1, ptr %5, align 8, !tbaa !49
  store i64 %2, ptr %6, align 8, !tbaa !68
  %7 = load ptr, ptr %5, align 8, !tbaa !49
  call void (i32, ptr, ...) @Abc_Print(i32 noundef 1, ptr noundef @.str.19, ptr noundef %7)
  %8 = load i64, ptr %6, align 8, !tbaa !68
  %9 = sitofp i64 %8 to double
  %10 = fmul double 1.000000e+00, %9
  %11 = fdiv double %10, 1.000000e+06
  call void (i32, ptr, ...) @Abc_Print(i32 noundef 1, ptr noundef @.str.20, double noundef %11)
  ret void
}

; Function Attrs: inlinehint nounwind uwtable
define internal i32 @Vec_IntSize(ptr noundef %0) #2 {
  %2 = alloca ptr, align 8
  store ptr %0, ptr %2, align 8, !tbaa !10
  %3 = load ptr, ptr %2, align 8, !tbaa !10
  %4 = getelementptr inbounds nuw %struct.Vec_Int_t_, ptr %3, i32 0, i32 1
  %5 = load i32, ptr %4, align 4, !tbaa !50
  ret i32 %5
}

; Function Attrs: inlinehint nounwind uwtable
define internal void @Vec_IntFree(ptr noundef %0) #2 {
  %2 = alloca ptr, align 8
  store ptr %0, ptr %2, align 8, !tbaa !10
  %3 = load ptr, ptr %2, align 8, !tbaa !10
  %4 = getelementptr inbounds nuw %struct.Vec_Int_t_, ptr %3, i32 0, i32 2
  %5 = load ptr, ptr %4, align 8, !tbaa !16
  %6 = icmp ne ptr %5, null
  br i1 %6, label %7, label %13

7:                                                ; preds = %1
  %8 = load ptr, ptr %2, align 8, !tbaa !10
  %9 = getelementptr inbounds nuw %struct.Vec_Int_t_, ptr %8, i32 0, i32 2
  %10 = load ptr, ptr %9, align 8, !tbaa !16
  call void @free(ptr noundef %10) #11
  %11 = load ptr, ptr %2, align 8, !tbaa !10
  %12 = getelementptr inbounds nuw %struct.Vec_Int_t_, ptr %11, i32 0, i32 2
  store ptr null, ptr %12, align 8, !tbaa !16
  br label %14

13:                                               ; preds = %1
  br label %14

14:                                               ; preds = %13, %7
  %15 = load ptr, ptr %2, align 8, !tbaa !10
  %16 = icmp ne ptr %15, null
  br i1 %16, label %17, label %19

17:                                               ; preds = %14
  %18 = load ptr, ptr %2, align 8, !tbaa !10
  call void @free(ptr noundef %18) #11
  store ptr null, ptr %2, align 8, !tbaa !10
  br label %20

19:                                               ; preds = %14
  br label %20

20:                                               ; preds = %19, %17
  ret void
}

; Function Attrs: inlinehint nounwind uwtable
define internal i64 @Abc_Clock() #2 {
  %1 = alloca i64, align 8
  %2 = alloca %struct.timespec, align 8
  %3 = alloca i32, align 4
  %4 = alloca i64, align 8
  call void @llvm.lifetime.start.p0(i64 16, ptr %2) #11
  %5 = call i32 @clock_gettime(i32 noundef 1, ptr noundef %2) #11
  %6 = icmp slt i32 %5, 0
  br i1 %6, label %7, label %8

7:                                                ; preds = %0
  store i64 -1, ptr %1, align 8
  store i32 1, ptr %3, align 4
  br label %19

8:                                                ; preds = %0
  call void @llvm.lifetime.start.p0(i64 8, ptr %4) #11
  %9 = getelementptr inbounds nuw %struct.timespec, ptr %2, i32 0, i32 0
  %10 = load i64, ptr %9, align 8, !tbaa !94
  %11 = mul nsw i64 %10, 1000000
  store i64 %11, ptr %4, align 8, !tbaa !68
  %12 = getelementptr inbounds nuw %struct.timespec, ptr %2, i32 0, i32 1
  %13 = load i64, ptr %12, align 8, !tbaa !96
  %14 = mul nsw i64 %13, 1000000
  %15 = sdiv i64 %14, 1000000000
  %16 = load i64, ptr %4, align 8, !tbaa !68
  %17 = add nsw i64 %16, %15
  store i64 %17, ptr %4, align 8, !tbaa !68
  %18 = load i64, ptr %4, align 8, !tbaa !68
  store i64 %18, ptr %1, align 8
  store i32 1, ptr %3, align 4
  call void @llvm.lifetime.end.p0(i64 8, ptr %4) #11
  br label %19

19:                                               ; preds = %8, %7
  call void @llvm.lifetime.end.p0(i64 16, ptr %2) #11
  %20 = load i64, ptr %1, align 8
  ret i64 %20
}

; Function Attrs: nounwind uwtable
define ptr @Acec_DetectAdditional(ptr noundef %0, i32 noundef %1) #0 {
  %3 = alloca ptr, align 8
  %4 = alloca i32, align 4
  %5 = alloca i64, align 8
  %6 = alloca ptr, align 8
  %7 = alloca ptr, align 8
  store ptr %0, ptr %3, align 8, !tbaa !3
  store i32 %1, ptr %4, align 4, !tbaa !8
  call void @llvm.lifetime.start.p0(i64 8, ptr %5) #11
  %8 = call i64 @Abc_Clock()
  store i64 %8, ptr %5, align 8, !tbaa !68
  call void @llvm.lifetime.start.p0(i64 8, ptr %6) #11
  call void @llvm.lifetime.start.p0(i64 8, ptr %7) #11
  %9 = call i64 @Abc_Clock()
  store i64 %9, ptr %5, align 8, !tbaa !68
  %10 = load ptr, ptr %3, align 8, !tbaa !3
  %11 = call ptr @Acec_CollectXorTops(ptr noundef %10)
  store ptr %11, ptr %7, align 8, !tbaa !10
  %12 = load ptr, ptr %7, align 8, !tbaa !10
  %13 = icmp ne ptr %12, null
  br i1 %13, label %14, label %21

14:                                               ; preds = %2
  %15 = load ptr, ptr %3, align 8, !tbaa !3
  %16 = load ptr, ptr %7, align 8, !tbaa !10
  call void @Acec_DetectComputeSupports(ptr noundef %15, ptr noundef %16)
  %17 = load ptr, ptr %3, align 8, !tbaa !3
  %18 = load ptr, ptr %7, align 8, !tbaa !10
  %19 = call ptr @Acec_DetectXorBuildNew(ptr noundef %17, ptr noundef %18)
  store ptr %19, ptr %6, align 8, !tbaa !3
  %20 = load ptr, ptr %7, align 8, !tbaa !10
  call void @Vec_IntFree(ptr noundef %20)
  br label %24

21:                                               ; preds = %2
  %22 = load ptr, ptr %3, align 8, !tbaa !3
  %23 = call ptr @Gia_ManDup(ptr noundef %22)
  store ptr %23, ptr %6, align 8, !tbaa !3
  br label %24

24:                                               ; preds = %21, %14
  %25 = load ptr, ptr %7, align 8, !tbaa !10
  %26 = call i32 @Vec_IntSize(ptr noundef %25)
  %27 = sdiv i32 %26, 4
  %28 = call i32 (ptr, ...) @printf(ptr noundef @.str.10, i32 noundef %27)
  %29 = call i64 @Abc_Clock()
  %30 = load i64, ptr %5, align 8, !tbaa !68
  %31 = sub nsw i64 %29, %30
  call void @Abc_PrintTime(i32 noundef 1, ptr noundef @.str.11, i64 noundef %31)
  %32 = load ptr, ptr %6, align 8, !tbaa !3
  call void @llvm.lifetime.end.p0(i64 8, ptr %7) #11
  call void @llvm.lifetime.end.p0(i64 8, ptr %6) #11
  call void @llvm.lifetime.end.p0(i64 8, ptr %5) #11
  ret ptr %32
}