; Function Attrs: nounwind uwtable
define ptr @Acec_DetectAdditional(ptr noundef %0, i32 noundef %1) local_unnamed_addr #0 {
Abc_Clock.exit:
  %2 = alloca %struct.timespec, align 8
  %3 = alloca %struct.timespec, align 8
  %4 = alloca %struct.timespec, align 8
  call void @llvm.lifetime.start.p0(i64 16, ptr nonnull %4) #19
  %5 = call i32 @clock_gettime(i32 noundef 1, ptr noundef nonnull %4) #19
  call void @llvm.lifetime.end.p0(i64 16, ptr nonnull %4) #19
  call void @llvm.lifetime.start.p0(i64 16, ptr nonnull %3) #19
  %6 = call i32 @clock_gettime(i32 noundef 1, ptr noundef nonnull %3) #19
  %7 = icmp slt i32 %6, 0
  br i1 %7, label %Abc_Clock.exit15, label %8

8:                                                ; preds = %Abc_Clock.exit
  %9 = load i64, ptr %3, align 8, !tbaa !63
  %.neg18 = mul i64 %9, -1000000
  %10 = getelementptr inbounds nuw i8, ptr %3, i64 8
  %11 = load i64, ptr %10, align 8, !tbaa !65
  %.neg = sdiv i64 %11, -1000
  %.neg19 = add i64 %.neg, %.neg18
  br label %Abc_Clock.exit15

Abc_Clock.exit15:                                 ; preds = %Abc_Clock.exit, %8
  %.0.i14.neg = phi i64 [ %.neg19, %8 ], [ 1, %Abc_Clock.exit ]
  call void @llvm.lifetime.end.p0(i64 16, ptr nonnull %3) #19
  %12 = call ptr @Acec_CollectXorTops(ptr noundef %0)
  %.not = icmp eq ptr %12, null
  br i1 %.not, label %.split11, label %.split

.split:                                           ; preds = %Abc_Clock.exit15
  call void @Acec_DetectComputeSupports(ptr noundef %0, ptr noundef nonnull %12)
  %13 = call ptr @Acec_DetectXorBuildNew(ptr noundef %0, ptr noundef nonnull %12)
  %14 = getelementptr inbounds nuw i8, ptr %12, i64 8
  %15 = load ptr, ptr %14, align 8, !tbaa !3
  %.not.i = icmp eq ptr %15, null
  br i1 %.not.i, label %Vec_IntFree.exit, label %16

16:                                               ; preds = %.split
  call void @free(ptr noundef nonnull %15) #19
  br label %Vec_IntFree.exit

Vec_IntFree.exit:                                 ; preds = %.split, %16
  call void @free(ptr noundef nonnull %12) #19
  %17 = getelementptr i8, ptr %12, i64 4
  br label %19

.split11:                                         ; preds = %Abc_Clock.exit15
  %18 = call ptr @Gia_ManDup(ptr noundef %0) #19
  br label %19

19:                                               ; preds = %.split11, %Vec_IntFree.exit
  %phi.call.in = phi ptr [ %17, %Vec_IntFree.exit ], [ inttoptr (i64 4 to ptr), %.split11 ]
  %.0 = phi ptr [ %13, %Vec_IntFree.exit ], [ %18, %.split11 ]
  %phi.call = load i32, ptr %phi.call.in, align 4, !tbaa !41
  %20 = sdiv i32 %phi.call, 4
  %21 = call i32 (ptr, ...) @printf(ptr noundef nonnull dereferenceable(1) @.str.10, i32 noundef %20)
  call void @llvm.lifetime.start.p0(i64 16, ptr nonnull %2) #19
  %22 = call i32 @clock_gettime(i32 noundef 1, ptr noundef nonnull %2) #19
  %23 = icmp slt i32 %22, 0
  br i1 %23, label %Abc_Clock.exit17, label %24

24:                                               ; preds = %19
  %25 = load i64, ptr %2, align 8, !tbaa !63
  %26 = mul nsw i64 %25, 1000000
  %27 = getelementptr inbounds nuw i8, ptr %2, i64 8
  %28 = load i64, ptr %27, align 8, !tbaa !65
  %29 = sdiv i64 %28, 1000
  %30 = add nsw i64 %29, %26
  br label %Abc_Clock.exit17

Abc_Clock.exit17:                                 ; preds = %19, %24
  %.0.i16 = phi i64 [ %30, %24 ], [ -1, %19 ]
  call void @llvm.lifetime.end.p0(i64 16, ptr nonnull %2) #19
  %31 = add i64 %.0.i16, %.0.i14.neg
  call void (i32, ptr, ...) @Abc_Print(i32 poison, ptr noundef nonnull @.str.19, ptr noundef nonnull @.str.11)
  %32 = sitofp i64 %31 to double
  %33 = fdiv double %32, 1.000000e+06
  call void (i32, ptr, ...) @Abc_Print(i32 poison, ptr noundef nonnull @.str.20, double noundef %33)
  ret ptr %.0
}